; Function Attrs: mustprogress uwtable
define noundef i32 @_ZN6duckdb13ParquetWriter5WriteERKN13duckdb_apache6thrift5TBaseE(ptr noundef nonnull align 8 dereferenceable(672) %0, ptr noundef nonnull align 8 dereferenceable(8) %1) local_unnamed_addr #3 align 2 {
  %3 = getelementptr inbounds nuw i8, ptr %0, i64 104
  %4 = load ptr, ptr %3, align 8, !tbaa !100
  %.not = icmp eq ptr %4, null
  %5 = getelementptr inbounds nuw i8, ptr %0, i64 192
  %6 = load ptr, ptr %5, align 8, !tbaa !103
  br i1 %.not, label %13, label %7

7:                                                ; preds = %2
  %8 = tail call noundef ptr @_ZNK6duckdb10shared_ptrINS_23ParquetEncryptionConfigELb1EEptEv(ptr noundef nonnull align 8 dereferenceable(16) %3)
  %9 = tail call noundef nonnull align 8 dereferenceable(32) ptr @_ZNK6duckdb23ParquetEncryptionConfig12GetFooterKeyB5cxx11Ev(ptr noundef nonnull align 8 dereferenceable(96) %8)
  %10 = getelementptr inbounds nuw i8, ptr %0, i64 160
  %11 = tail call noundef nonnull align 8 dereferenceable(8) ptr @_ZNK6duckdb10shared_ptrINS_14EncryptionUtilELb1EEdeEv(ptr noundef nonnull align 8 dereferenceable(16) %10)
  %12 = tail call noundef i32 @_ZN6duckdb13ParquetCrypto5WriteERKN13duckdb_apache6thrift5TBaseERNS2_8protocol9TProtocolERKNSt7__cxx1112basic_stringIcSt11char_traitsIcESaIcEEERKNS_14EncryptionUtilE(ptr noundef nonnull align 8 dereferenceable(8) %1, ptr noundef nonnull align 8 dereferenceable(36) %6, ptr noundef nonnull align 8 dereferenceable(32) %9, ptr noundef nonnull align 8 dereferenceable(8) %11)
  br label %18

13:                                               ; preds = %2
  %14 = load ptr, ptr %1, align 8, !tbaa !106
  %15 = getelementptr inbounds nuw i8, ptr %14, i64 24
  %16 = load ptr, ptr %15, align 8
  %17 = tail call noundef i32 %16(ptr noundef nonnull align 8 dereferenceable(8) %1, ptr noundef %6)
  br label %18

18:                                               ; preds = %13, %7
  %.0 = phi i32 [ %12, %7 ], [ %17, %13 ]
  ret i32 %.0
}